(dp0
S'mary'
p1
(S'\3718\256\340\214\344w\225\361\266\334t\335\031\203c'
p2
L63261456727935051278753841655354283071936909594406661804412646115945335438869331439129596805039009151995965016935895061802412611376388126690291994278920275328644035835181728607404171258973566120512122733717595974311319454577623193614695190124307415229888050520840161303359812067516625975842262210887870525878L
I0
tp3
s.